target datalayout = "e-m:e-p270:32:32-p271:32:32-p272:64:64-i64:64-i128:128-f80:128-n8:16:32:64-S128"
target triple = "x86_64-pc-linux-gnu"

%"class.icu_77::number::impl::Grouper" = type { i16, i16, i16, i32 }
%"struct.icu_77::number::impl::DecimalFormatProperties" = type <{ %"class.icu_77::number::impl::NullableValue", %"class.icu_77::number::impl::NullableValue.0", %"class.icu_77::number::impl::CurrencyPluralInfoWrapper", %"class.icu_77::number::impl::NullableValue.1", i8, i8, i8, i8, i8, [3 x i8], i32, i32, i8, [3 x i8], i32, i32, i32, i32, i32, i32, i32, i32, i32, i32, i32, %"class.icu_77::UnicodeString", %"class.icu_77::UnicodeString", %"class.icu_77::UnicodeString", %"class.icu_77::UnicodeString", %"class.icu_77::number::impl::NullableValue.3", %"class.icu_77::UnicodeString", i8, i8, [2 x i8], %"class.icu_77::number::impl::NullableValue.4", i8, i8, [2 x i8], i32, [4 x i8], %"class.icu_77::UnicodeString", %"class.icu_77::UnicodeString", %"class.icu_77::UnicodeString", %"class.icu_77::UnicodeString", double, %"class.icu_77::number::impl::NullableValue.5", i32, i8, [3 x i8] }>
%"class.icu_77::number::impl::NullableValue" = type { i8, i32 }
%"class.icu_77::number::impl::NullableValue.0" = type { i8, [7 x i8], %"class.icu_77::CurrencyUnit" }
%"class.icu_77::CurrencyUnit" = type { %"class.icu_77::MeasureUnit.base", [4 x i16], [4 x i8] }
%"class.icu_77::MeasureUnit.base" = type <{ %"class.icu_77::UObject", ptr, i16, i8 }>
%"class.icu_77::UObject" = type { ptr }
%"class.icu_77::number::impl::CurrencyPluralInfoWrapper" = type { %"class.icu_77::LocalPointer" }
%"class.icu_77::LocalPointer" = type { %"class.icu_77::LocalPointerBase" }
%"class.icu_77::LocalPointerBase" = type { ptr }
%"class.icu_77::number::impl::NullableValue.1" = type { i8, i32 }
%"class.icu_77::number::impl::NullableValue.3" = type { i8, i32 }
%"class.icu_77::number::impl::NullableValue.4" = type { i8, i32 }
%"class.icu_77::UnicodeString" = type { %"class.icu_77::Replaceable", %"union.icu_77::UnicodeString::StackBufferOrFields" }
%"class.icu_77::Replaceable" = type { %"class.icu_77::UObject" }
%"union.icu_77::UnicodeString::StackBufferOrFields" = type { %struct.anon.2, [32 x i8] }
%struct.anon.2 = type { i16, i32, i32, ptr }
%"class.icu_77::number::impl::NullableValue.5" = type { i8, i32 }

; Function Attrs: mustprogress nounwind uwtable
define linkonce_odr void @_ZN6icu_776number4impl7GrouperC2Esss23UNumberGroupingStrategy(ptr noundef nonnull align 4 dereferenceable(12) %0, i16 noundef signext %1, i16 noundef signext %2, i16 noundef signext %3, i32 noundef %4) unnamed_addr #1 comdat align 2 {
  %6 = alloca ptr, align 8
  %7 = alloca i16, align 2
  %8 = alloca i16, align 2
  %9 = alloca i16, align 2
  %10 = alloca i32, align 4
  store ptr %0, ptr %6, align 8, !tbaa !7
  store i16 %1, ptr %7, align 2, !tbaa !10
  store i16 %2, ptr %8, align 2, !tbaa !10
  store i16 %3, ptr %9, align 2, !tbaa !10
  store i32 %4, ptr %10, align 4, !tbaa !3
  %11 = load ptr, ptr %6, align 8
  %12 = getelementptr inbounds nuw %"class.icu_77::number::impl::Grouper", ptr %11, i32 0, i32 0
  %13 = load i16, ptr %7, align 2, !tbaa !10
  store i16 %13, ptr %12, align 4, !tbaa !12
  %14 = getelementptr inbounds nuw %"class.icu_77::number::impl::Grouper", ptr %11, i32 0, i32 1
  %15 = load i16, ptr %8, align 2, !tbaa !10
  store i16 %15, ptr %14, align 2, !tbaa !14
  %16 = getelementptr inbounds nuw %"class.icu_77::number::impl::Grouper", ptr %11, i32 0, i32 2
  %17 = load i16, ptr %9, align 2, !tbaa !10
  store i16 %17, ptr %16, align 4, !tbaa !15
  %18 = getelementptr inbounds nuw %"class.icu_77::number::impl::Grouper", ptr %11, i32 0, i32 3
  %19 = load i32, ptr %10, align 4, !tbaa !3
  store i32 %19, ptr %18, align 4, !tbaa !16
  ret void
}

; Function Attrs: mustprogress uwtable
define { i64, i32 } @_ZN6icu_776number4impl7Grouper11forStrategyE23UNumberGroupingStrategy(i32 noundef %0) #0 align 2 {
  %2 = alloca %"class.icu_77::number::impl::Grouper", align 4
  %3 = alloca i32, align 4
  %4 = alloca { i64, i32 }, align 8
  store i32 %0, ptr %3, align 4, !tbaa !3
  %5 = load i32, ptr %3, align 4, !tbaa !3
  switch i32 %5, label %16 [
    i32 0, label %6
    i32 2, label %8
    i32 1, label %10
    i32 3, label %12
    i32 4, label %14
  ]

6:                                                ; preds = %1
  %7 = load i32, ptr %3, align 4, !tbaa !3
  call void @_ZN6icu_776number4impl7GrouperC2Esss23UNumberGroupingStrategy(ptr noundef nonnull align 4 dereferenceable(12) %2, i16 noundef signext -1, i16 noundef signext -1, i16 noundef signext -2, i32 noundef %7)
  br label %17

8:                                                ; preds = %1
  %9 = load i32, ptr %3, align 4, !tbaa !3
  call void @_ZN6icu_776number4impl7GrouperC2Esss23UNumberGroupingStrategy(ptr noundef nonnull align 4 dereferenceable(12) %2, i16 noundef signext -2, i16 noundef signext -2, i16 noundef signext -2, i32 noundef %9)
  br label %17

10:                                               ; preds = %1
  %11 = load i32, ptr %3, align 4, !tbaa !3
  call void @_ZN6icu_776number4impl7GrouperC2Esss23UNumberGroupingStrategy(ptr noundef nonnull align 4 dereferenceable(12) %2, i16 noundef signext -2, i16 noundef signext -2, i16 noundef signext -3, i32 noundef %11)
  br label %17

12:                                               ; preds = %1
  %13 = load i32, ptr %3, align 4, !tbaa !3
  call void @_ZN6icu_776number4impl7GrouperC2Esss23UNumberGroupingStrategy(ptr noundef nonnull align 4 dereferenceable(12) %2, i16 noundef signext -4, i16 noundef signext -4, i16 noundef signext 1, i32 noundef %13)
  br label %17

14:                                               ; preds = %1
  %15 = load i32, ptr %3, align 4, !tbaa !3
  call void @_ZN6icu_776number4impl7GrouperC2Esss23UNumberGroupingStrategy(ptr noundef nonnull align 4 dereferenceable(12) %2, i16 noundef signext 3, i16 noundef signext 3, i16 noundef signext 1, i32 noundef %15)
  br label %17

16:                                               ; preds = %1
  call void @abort() #8
  unreachable

17:                                               ; preds = %14, %12, %10, %8, %6
  call void @llvm.memcpy.p0.p0.i64(ptr align 8 %4, ptr align 4 %2, i64 12, i1 false)
  %18 = load { i64, i32 }, ptr %4, align 8
  ret { i64, i32 } %18
}

; Function Attrs: mustprogress uwtable
define { i64, i32 } @_ZN6icu_776number4impl7Grouper13forPropertiesERKNS1_23DecimalFormatPropertiesE(ptr noundef nonnull align 8 dereferenceable(757) %0) #0 align 2 {
  %2 = alloca %"class.icu_77::number::impl::Grouper", align 4
  %3 = alloca ptr, align 8
  %4 = alloca { i64, i32 }, align 8
  %5 = alloca i16, align 2
  %6 = alloca i16, align 2
  %7 = alloca i16, align 2
  %8 = alloca { i64, i32 }, align 8
  store ptr %0, ptr %3, align 8, !tbaa !17
  %9 = load ptr, ptr %3, align 8, !tbaa !17
  %10 = getelementptr inbounds nuw %"struct.icu_77::number::impl::DecimalFormatProperties", ptr %9, i32 0, i32 12
  %11 = load i8, ptr %10, align 8, !tbaa !19, !range !46, !noundef !47
  %12 = trunc i8 %11 to i1
  br i1 %12, label %15, label %13

13:                                               ; preds = %1
  %14 = call { i64, i32 } @_ZN6icu_776number4impl7Grouper11forStrategyE23UNumberGroupingStrategy(i32 noundef 0)
  store { i64, i32 } %14, ptr %4, align 8
  call void @llvm.memcpy.p0.p0.i64(ptr align 4 %2, ptr align 8 %4, i64 12, i1 false)
  br label %57

15:                                               ; preds = %1
  call void @llvm.lifetime.start.p0(i64 2, ptr %5) #9
  %16 = load ptr, ptr %3, align 8, !tbaa !17
  %17 = getelementptr inbounds nuw %"struct.icu_77::number::impl::DecimalFormatProperties", ptr %16, i32 0, i32 11
  %18 = load i32, ptr %17, align 4, !tbaa !48
  %19 = trunc i32 %18 to i16
  store i16 %19, ptr %5, align 2, !tbaa !10
  call void @llvm.lifetime.start.p0(i64 2, ptr %6) #9
  %20 = load ptr, ptr %3, align 8, !tbaa !17
  %21 = getelementptr inbounds nuw %"struct.icu_77::number::impl::DecimalFormatProperties", ptr %20, i32 0, i32 46
  %22 = load i32, ptr %21, align 8, !tbaa !49
  %23 = trunc i32 %22 to i16
  store i16 %23, ptr %6, align 2, !tbaa !10
  call void @llvm.lifetime.start.p0(i64 2, ptr %7) #9
  %24 = load ptr, ptr %3, align 8, !tbaa !17
  %25 = getelementptr inbounds nuw %"struct.icu_77::number::impl::DecimalFormatProperties", ptr %24, i32 0, i32 20
  %26 = load i32, ptr %25, align 4, !tbaa !50
  %27 = trunc i32 %26 to i16
  store i16 %27, ptr %7, align 2, !tbaa !10
  %28 = load i16, ptr %5, align 2, !tbaa !10
  %29 = sext i16 %28 to i32
  %30 = icmp sgt i32 %29, 0
  br i1 %30, label %31, label %33

31:                                               ; preds = %15
  %32 = load i16, ptr %5, align 2, !tbaa !10
  br label %43

33:                                               ; preds = %15
  %34 = load i16, ptr %6, align 2, !tbaa !10
  %35 = sext i16 %34 to i32
  %36 = icmp sgt i32 %35, 0
  br i1 %36, label %37, label %39

37:                                               ; preds = %33
  %38 = load i16, ptr %6, align 2, !tbaa !10
  br label %41

39:                                               ; preds = %33
  %40 = load i16, ptr %5, align 2, !tbaa !10
  br label %41

41:                                               ; preds = %39, %37
  %42 = phi i16 [ %38, %37 ], [ %40, %39 ]
  br label %43

43:                                               ; preds = %41, %31
  %44 = phi i16 [ %32, %31 ], [ %42, %41 ]
  store i16 %44, ptr %5, align 2, !tbaa !10
  %45 = load i16, ptr %6, align 2, !tbaa !10
  %46 = sext i16 %45 to i32
  %47 = icmp sgt i32 %46, 0
  br i1 %47, label %48, label %50

48:                                               ; preds = %43
  %49 = load i16, ptr %6, align 2, !tbaa !10
  br label %52

50:                                               ; preds = %43
  %51 = load i16, ptr %5, align 2, !tbaa !10
  br label %52

52:                                               ; preds = %50, %48
  %53 = phi i16 [ %49, %48 ], [ %51, %50 ]
  store i16 %53, ptr %6, align 2, !tbaa !10
  %54 = load i16, ptr %5, align 2, !tbaa !10
  %55 = load i16, ptr %6, align 2, !tbaa !10
  %56 = load i16, ptr %7, align 2, !tbaa !10
  call void @_ZN6icu_776number4impl7GrouperC2Esss23UNumberGroupingStrategy(ptr noundef nonnull align 4 dereferenceable(12) %2, i16 noundef signext %54, i16 noundef signext %55, i16 noundef signext %56, i32 noundef 5)
  call void @llvm.lifetime.end.p0(i64 2, ptr %7) #9
  call void @llvm.lifetime.end.p0(i64 2, ptr %6) #9
  call void @llvm.lifetime.end.p0(i64 2, ptr %5) #9
  br label %57

57:                                               ; preds = %52, %13
  call void @llvm.memcpy.p0.p0.i64(ptr align 8 %8, ptr align 4 %2, i64 12, i1 false)
  %58 = load { i64, i32 }, ptr %8, align 8
  ret { i64, i32 } %58
}