; Function Attrs: mustprogress nofree norecurse nosync nounwind willreturn memory(argmem: read) uwtable
define { i64, i32 } @_ZN6icu_776number4impl7Grouper13forPropertiesERKNS1_23DecimalFormatPropertiesE(ptr noundef nonnull readonly align 8 captures(none) dereferenceable(757) %0) local_unnamed_addr #2 align 2 {
  %2 = getelementptr inbounds nuw i8, ptr %0, i64 80
  %3 = load i8, ptr %2, align 8, !tbaa !3, !range !34, !noundef !35
  %4 = trunc nuw i8 %3 to i1
  br i1 %4, label %5, label %26

5:                                                ; preds = %1
  %6 = getelementptr inbounds nuw i8, ptr %0, i64 76
  %7 = load i32, ptr %6, align 4, !tbaa !36
  %8 = trunc i32 %7 to i16
  %9 = getelementptr inbounds nuw i8, ptr %0, i64 752
  %10 = load i32, ptr %9, align 8, !tbaa !37
  %11 = trunc i32 %10 to i16
  %12 = getelementptr inbounds nuw i8, ptr %0, i64 108
  %13 = load i32, ptr %12, align 4, !tbaa !38
  %14 = icmp sgt i16 %8, 0
  %15 = icmp sgt i16 %11, 0
  %16 = select i1 %15, i16 %11, i16 %8
  %17 = select i1 %14, i16 %8, i16 %16
  %18 = and i32 %13, 65535
  %19 = zext nneg i32 %18 to i64
  %20 = shl nuw nsw i64 %19, 32
  %21 = zext i16 %16 to i64
  %22 = shl nuw nsw i64 %21, 16
  %23 = or disjoint i64 %22, %20
  %24 = zext i16 %17 to i64
  %25 = or disjoint i64 %23, %24
  br label %26

26:                                               ; preds = %1, %5
  %.sroa.5.sroa.2.0 = phi i32 [ 5, %5 ], [ 0, %1 ]
  %.sroa.0.0.insert.insert = phi i64 [ %25, %5 ], [ 281470681743359, %1 ]
  %.fca.0.insert = insertvalue { i64, i32 } poison, i64 %.sroa.0.0.insert.insert, 0
  %.fca.1.insert = insertvalue { i64, i32 } %.fca.0.insert, i32 %.sroa.5.sroa.2.0, 1
  ret { i64, i32 } %.fca.1.insert
}